; Function Attrs: nounwind uwtable
define internal void @tts_virtual_copyslot(ptr noundef captures(none) initializes((6, 8), (48, 54)) %0, ptr noundef %1) #1 {
  %3 = getelementptr inbounds nuw i8, ptr %1, i64 16
  %4 = load ptr, ptr %3, align 8
  %5 = getelementptr inbounds nuw i8, ptr %0, i64 4
  %6 = load i16, ptr %5, align 4
  %7 = and i16 %6, 4
  %.not.i = icmp eq i16 %7, 0
  br i1 %.not.i, label %tts_virtual_clear.exit, label %8, !prof !4

8:                                                ; preds = %2
  %9 = getelementptr inbounds nuw i8, ptr %0, i64 64
  %10 = load ptr, ptr %9, align 8
  tail call void @pfree(ptr noundef %10) #14
  store ptr null, ptr %9, align 8
  %11 = load i16, ptr %5, align 4
  %12 = and i16 %11, -5
  br label %tts_virtual_clear.exit

tts_virtual_clear.exit:                           ; preds = %2, %8
  %13 = phi i16 [ %12, %8 ], [ %6, %2 ]
  %14 = getelementptr inbounds nuw i8, ptr %0, i64 6
  store i16 0, ptr %14, align 2
  %15 = or i16 %13, 2
  store i16 %15, ptr %5, align 4
  %16 = getelementptr inbounds nuw i8, ptr %0, i64 48
  store i16 -1, ptr %16, align 2
  %17 = getelementptr inbounds nuw i8, ptr %0, i64 50
  store i16 -1, ptr %17, align 2
  %18 = getelementptr inbounds nuw i8, ptr %0, i64 52
  store i16 0, ptr %18, align 2
  %19 = load ptr, ptr %3, align 8
  %20 = load i32, ptr %19, align 8
  %21 = getelementptr inbounds nuw i8, ptr %1, i64 6
  %22 = load i16, ptr %21, align 2
  %23 = sext i16 %22 to i32
  %24 = icmp sgt i32 %20, %23
  br i1 %24, label %25, label %slot_getallattrs.exit

25:                                               ; preds = %tts_virtual_clear.exit
  %26 = getelementptr inbounds nuw i8, ptr %1, i64 8
  %27 = load ptr, ptr %26, align 8
  %28 = getelementptr inbounds nuw i8, ptr %27, i64 32
  %29 = load ptr, ptr %28, align 8
  tail call void %29(ptr noundef nonnull %1, i32 noundef %20) #14
  %30 = load i16, ptr %21, align 2
  %31 = sext i16 %30 to i32
  %32 = icmp sgt i32 %20, %31
  br i1 %32, label %33, label %slot_getallattrs.exit, !prof !10

33:                                               ; preds = %25
  tail call void @slot_getmissingattrs(ptr noundef nonnull %1, i32 noundef %31, i32 noundef %20)
  %34 = trunc i32 %20 to i16
  store i16 %34, ptr %21, align 2
  br label %slot_getallattrs.exit

slot_getallattrs.exit:                            ; preds = %tts_virtual_clear.exit, %25, %33
  %35 = load i32, ptr %4, align 8
  %36 = icmp sgt i32 %35, 0
  br i1 %36, label %.lr.ph, label %._crit_edge

.lr.ph:                                           ; preds = %slot_getallattrs.exit
  %37 = getelementptr inbounds nuw i8, ptr %1, i64 24
  %38 = getelementptr inbounds nuw i8, ptr %0, i64 24
  %39 = getelementptr inbounds nuw i8, ptr %1, i64 32
  %40 = getelementptr inbounds nuw i8, ptr %0, i64 32
  br label %44

._crit_edge:                                      ; preds = %44, %slot_getallattrs.exit
  %.lcssa = phi i32 [ %35, %slot_getallattrs.exit ], [ %55, %44 ]
  %41 = trunc i32 %.lcssa to i16
  store i16 %41, ptr %14, align 2
  %42 = load i16, ptr %5, align 4
  %43 = and i16 %42, -3
  store i16 %43, ptr %5, align 4
  tail call void @tts_virtual_materialize(ptr noundef nonnull %0)
  ret void

44:                                               ; preds = %.lr.ph, %44
  %indvars.iv = phi i64 [ 0, %.lr.ph ], [ %indvars.iv.next, %44 ]
  %45 = load ptr, ptr %37, align 8
  %46 = getelementptr inbounds nuw i64, ptr %45, i64 %indvars.iv
  %47 = load i64, ptr %46, align 8
  %48 = load ptr, ptr %38, align 8
  %49 = getelementptr inbounds nuw i64, ptr %48, i64 %indvars.iv
  store i64 %47, ptr %49, align 8
  %50 = load ptr, ptr %39, align 8
  %51 = getelementptr inbounds nuw i8, ptr %50, i64 %indvars.iv
  %52 = load i8, ptr %51, align 1, !range !5, !noundef !6
  %53 = load ptr, ptr %40, align 8
  %54 = getelementptr inbounds nuw i8, ptr %53, i64 %indvars.iv
  store i8 %52, ptr %54, align 1
  %indvars.iv.next = add nuw nsw i64 %indvars.iv, 1
  %55 = load i32, ptr %4, align 8
  %56 = sext i32 %55 to i64
  %57 = icmp slt i64 %indvars.iv.next, %56
  br i1 %57, label %44, label %._crit_edge, !llvm.loop !11
}